target datalayout = "e-m:e-p270:32:32-p271:32:32-p272:64:64-i64:64-i128:128-f80:128-n8:16:32:64-S128"
target triple = "x86_64-pc-linux-gnu"

%"class.ncnn::Mat" = type { ptr, ptr, i64, i32, ptr, i32, i32, i32, i32, i32, i64 }

; Function Attrs: mustprogress uwtable
define hidden void @ncnn_convert_packing(ptr noundef %0, ptr noundef %1, i32 noundef %2, ptr noundef %3) #1 personality ptr @__gxx_personality_v0 {
  %5 = alloca ptr, align 8
  %6 = alloca i32, align 4
  %7 = alloca i32, align 4
  %8 = alloca ptr, align 8
  %9 = alloca ptr, align 8
  %10 = alloca ptr, align 8
  %11 = alloca i32, align 4
  %12 = alloca i32, align 4
  %13 = alloca ptr, align 8
  %14 = alloca i32, align 4
  %15 = alloca i32, align 4
  %16 = alloca ptr, align 8
  %17 = alloca ptr, align 8
  %18 = alloca ptr, align 8
  %19 = alloca ptr, align 8
  %20 = alloca ptr, align 8
  %21 = alloca ptr, align 8
  %22 = alloca ptr, align 8
  %23 = alloca i32, align 4
  %24 = alloca ptr, align 8
  %25 = alloca %"class.ncnn::Mat", align 8
  %26 = alloca ptr, align 8
  %27 = alloca i32, align 4
  store ptr %0, ptr %21, align 8
  store ptr %1, ptr %22, align 8
  store i32 %2, ptr %23, align 4
  store ptr %3, ptr %24, align 8
  store ptr %25, ptr %20, align 8
  %28 = load ptr, ptr %20, align 8
  store ptr null, ptr %28, align 8
  %29 = getelementptr inbounds nuw %"class.ncnn::Mat", ptr %28, i32 0, i32 1
  store ptr null, ptr %29, align 8
  %30 = getelementptr inbounds nuw %"class.ncnn::Mat", ptr %28, i32 0, i32 2
  store i64 0, ptr %30, align 8
  %31 = getelementptr inbounds nuw %"class.ncnn::Mat", ptr %28, i32 0, i32 3
  store i32 0, ptr %31, align 8
  %32 = getelementptr inbounds nuw %"class.ncnn::Mat", ptr %28, i32 0, i32 4
  store ptr null, ptr %32, align 8
  %33 = getelementptr inbounds nuw %"class.ncnn::Mat", ptr %28, i32 0, i32 5
  store i32 0, ptr %33, align 8
  %34 = getelementptr inbounds nuw %"class.ncnn::Mat", ptr %28, i32 0, i32 6
  store i32 0, ptr %34, align 4
  %35 = getelementptr inbounds nuw %"class.ncnn::Mat", ptr %28, i32 0, i32 7
  store i32 0, ptr %35, align 8
  %36 = getelementptr inbounds nuw %"class.ncnn::Mat", ptr %28, i32 0, i32 8
  store i32 0, ptr %36, align 4
  %37 = getelementptr inbounds nuw %"class.ncnn::Mat", ptr %28, i32 0, i32 9
  store i32 0, ptr %37, align 8
  %38 = getelementptr inbounds nuw %"class.ncnn::Mat", ptr %28, i32 0, i32 10
  store i64 0, ptr %38, align 8
  %39 = load ptr, ptr %21, align 8
  %40 = load i32, ptr %23, align 4
  %41 = load ptr, ptr %24, align 8
  invoke void @_ZN4ncnn15convert_packingERKNS_3MatERS0_iRKNS_6OptionE(ptr noundef nonnull align 8 dereferenceable(72) %39, ptr noundef nonnull align 8 dereferenceable(72) %25, i32 noundef %40, ptr noundef nonnull align 8 dereferenceable(64) %41)
          to label %42 unwind label %146

42:                                               ; preds = %4
  %43 = invoke noalias noundef nonnull ptr @_Znwm(i64 noundef 72) #13
          to label %44 unwind label %146

44:                                               ; preds = %42
  store ptr %43, ptr %16, align 8
  store ptr %25, ptr %17, align 8
  %45 = load ptr, ptr %16, align 8
  %46 = load ptr, ptr %17, align 8
  %47 = load ptr, ptr %46, align 8
  store ptr %47, ptr %45, align 8
  %48 = getelementptr inbounds nuw %"class.ncnn::Mat", ptr %45, i32 0, i32 1
  %49 = load ptr, ptr %17, align 8
  %50 = getelementptr inbounds nuw %"class.ncnn::Mat", ptr %49, i32 0, i32 1
  %51 = load ptr, ptr %50, align 8
  store ptr %51, ptr %48, align 8
  %52 = getelementptr inbounds nuw %"class.ncnn::Mat", ptr %45, i32 0, i32 2
  %53 = load ptr, ptr %17, align 8
  %54 = getelementptr inbounds nuw %"class.ncnn::Mat", ptr %53, i32 0, i32 2
  %55 = load i64, ptr %54, align 8
  store i64 %55, ptr %52, align 8
  %56 = getelementptr inbounds nuw %"class.ncnn::Mat", ptr %45, i32 0, i32 3
  %57 = load ptr, ptr %17, align 8
  %58 = getelementptr inbounds nuw %"class.ncnn::Mat", ptr %57, i32 0, i32 3
  %59 = load i32, ptr %58, align 8
  store i32 %59, ptr %56, align 8
  %60 = getelementptr inbounds nuw %"class.ncnn::Mat", ptr %45, i32 0, i32 4
  %61 = load ptr, ptr %17, align 8
  %62 = getelementptr inbounds nuw %"class.ncnn::Mat", ptr %61, i32 0, i32 4
  %63 = load ptr, ptr %62, align 8
  store ptr %63, ptr %60, align 8
  %64 = getelementptr inbounds nuw %"class.ncnn::Mat", ptr %45, i32 0, i32 5
  %65 = load ptr, ptr %17, align 8
  %66 = getelementptr inbounds nuw %"class.ncnn::Mat", ptr %65, i32 0, i32 5
  %67 = load i32, ptr %66, align 8
  store i32 %67, ptr %64, align 8
  %68 = getelementptr inbounds nuw %"class.ncnn::Mat", ptr %45, i32 0, i32 6
  %69 = load ptr, ptr %17, align 8
  %70 = getelementptr inbounds nuw %"class.ncnn::Mat", ptr %69, i32 0, i32 6
  %71 = load i32, ptr %70, align 4
  store i32 %71, ptr %68, align 4
  %72 = getelementptr inbounds nuw %"class.ncnn::Mat", ptr %45, i32 0, i32 7
  %73 = load ptr, ptr %17, align 8
  %74 = getelementptr inbounds nuw %"class.ncnn::Mat", ptr %73, i32 0, i32 7
  %75 = load i32, ptr %74, align 8
  store i32 %75, ptr %72, align 8
  %76 = getelementptr inbounds nuw %"class.ncnn::Mat", ptr %45, i32 0, i32 8
  %77 = load ptr, ptr %17, align 8
  %78 = getelementptr inbounds nuw %"class.ncnn::Mat", ptr %77, i32 0, i32 8
  %79 = load i32, ptr %78, align 4
  store i32 %79, ptr %76, align 4
  %80 = getelementptr inbounds nuw %"class.ncnn::Mat", ptr %45, i32 0, i32 9
  %81 = load ptr, ptr %17, align 8
  %82 = getelementptr inbounds nuw %"class.ncnn::Mat", ptr %81, i32 0, i32 9
  %83 = load i32, ptr %82, align 8
  store i32 %83, ptr %80, align 8
  %84 = getelementptr inbounds nuw %"class.ncnn::Mat", ptr %45, i32 0, i32 10
  %85 = load ptr, ptr %17, align 8
  %86 = getelementptr inbounds nuw %"class.ncnn::Mat", ptr %85, i32 0, i32 10
  %87 = load i64, ptr %86, align 8
  store i64 %87, ptr %84, align 8
  store ptr %45, ptr %5, align 8
  %88 = load ptr, ptr %5, align 8
  %89 = getelementptr inbounds nuw %"class.ncnn::Mat", ptr %88, i32 0, i32 1
  %90 = load ptr, ptr %89, align 8
  %91 = icmp ne ptr %90, null
  br i1 %91, label %92, label %97

92:                                               ; preds = %44
  %93 = getelementptr inbounds nuw %"class.ncnn::Mat", ptr %88, i32 0, i32 1
  %94 = load ptr, ptr %93, align 8
  store i32 1, ptr %6, align 4
  %95 = load i32, ptr %6, align 4
  %96 = atomicrmw add ptr %94, i32 %95 acq_rel, align 4
  store i32 %96, ptr %7, align 4
  br label %97

97:                                               ; preds = %92, %44
  br label %98

98:                                               ; preds = %97
  %99 = load ptr, ptr %22, align 8
  store ptr %43, ptr %99, align 8
  store ptr %25, ptr %19, align 8
  %100 = load ptr, ptr %19, align 8
  store ptr %100, ptr %10, align 8
  %101 = load ptr, ptr %10, align 8
  %102 = getelementptr inbounds nuw %"class.ncnn::Mat", ptr %101, i32 0, i32 1
  %103 = load ptr, ptr %102, align 8
  %104 = icmp ne ptr %103, null
  br i1 %104, label %105, label %132

105:                                              ; preds = %98
  %106 = getelementptr inbounds nuw %"class.ncnn::Mat", ptr %101, i32 0, i32 1
  %107 = load ptr, ptr %106, align 8
  store i32 -1, ptr %11, align 4
  %108 = load i32, ptr %11, align 4
  %109 = atomicrmw add ptr %107, i32 %108 acq_rel, align 4
  store i32 %109, ptr %12, align 4
  %110 = load i32, ptr %12, align 4
  %111 = icmp eq i32 %110, 1
  br i1 %111, label %112, label %132

112:                                              ; preds = %105
  %113 = getelementptr inbounds nuw %"class.ncnn::Mat", ptr %101, i32 0, i32 4
  %114 = load ptr, ptr %113, align 8
  %115 = icmp ne ptr %114, null
  br i1 %115, label %116, label %124

116:                                              ; preds = %112
  %117 = getelementptr inbounds nuw %"class.ncnn::Mat", ptr %101, i32 0, i32 4
  %118 = load ptr, ptr %117, align 8
  %119 = load ptr, ptr %101, align 8
  %120 = load ptr, ptr %118, align 8
  %121 = getelementptr inbounds ptr, ptr %120, i64 3
  %122 = load ptr, ptr %121, align 8
  invoke void %122(ptr noundef nonnull align 8 dereferenceable(8) %118, ptr noundef %119)
          to label %123 unwind label %142

123:                                              ; preds = %116
  br label %131

124:                                              ; preds = %112
  %125 = load ptr, ptr %101, align 8
  store ptr %125, ptr %9, align 8
  %126 = load ptr, ptr %9, align 8
  %127 = icmp ne ptr %126, null
  br i1 %127, label %128, label %130

128:                                              ; preds = %124
  %129 = load ptr, ptr %9, align 8
  call void @free(ptr noundef %129) #15
  br label %130

130:                                              ; preds = %128, %124
  br label %131

131:                                              ; preds = %130, %123
  br label %132

132:                                              ; preds = %131, %105, %98
  store ptr null, ptr %101, align 8
  %133 = getelementptr inbounds nuw %"class.ncnn::Mat", ptr %101, i32 0, i32 2
  store i64 0, ptr %133, align 8
  %134 = getelementptr inbounds nuw %"class.ncnn::Mat", ptr %101, i32 0, i32 3
  store i32 0, ptr %134, align 8
  %135 = getelementptr inbounds nuw %"class.ncnn::Mat", ptr %101, i32 0, i32 5
  store i32 0, ptr %135, align 8
  %136 = getelementptr inbounds nuw %"class.ncnn::Mat", ptr %101, i32 0, i32 6
  store i32 0, ptr %136, align 4
  %137 = getelementptr inbounds nuw %"class.ncnn::Mat", ptr %101, i32 0, i32 7
  store i32 0, ptr %137, align 8
  %138 = getelementptr inbounds nuw %"class.ncnn::Mat", ptr %101, i32 0, i32 8
  store i32 0, ptr %138, align 4
  %139 = getelementptr inbounds nuw %"class.ncnn::Mat", ptr %101, i32 0, i32 9
  store i32 0, ptr %139, align 8
  %140 = getelementptr inbounds nuw %"class.ncnn::Mat", ptr %101, i32 0, i32 10
  store i64 0, ptr %140, align 8
  %141 = getelementptr inbounds nuw %"class.ncnn::Mat", ptr %101, i32 0, i32 1
  store ptr null, ptr %141, align 8
  br label %145

142:                                              ; preds = %116
  %143 = landingpad { ptr, i32 }
          catch ptr null
  %144 = extractvalue { ptr, i32 } %143, 0
  call void @__clang_call_terminate(ptr %144) #16
  unreachable

145:                                              ; preds = %132
  ret void

146:                                              ; preds = %42, %4
  %147 = landingpad { ptr, i32 }
          cleanup
  %148 = extractvalue { ptr, i32 } %147, 0
  store ptr %148, ptr %26, align 8
  %149 = extractvalue { ptr, i32 } %147, 1
  store i32 %149, ptr %27, align 4
  br label %154

150:                                              ; No predecessors!
  %151 = landingpad { ptr, i32 }
          cleanup
  %152 = extractvalue { ptr, i32 } %151, 0
  store ptr %152, ptr %26, align 8
  %153 = extractvalue { ptr, i32 } %151, 1
  store i32 %153, ptr %27, align 4
  call void @_ZdlPvm(ptr noundef %43, i64 noundef 72) #14
  br label %154

154:                                              ; preds = %150, %146
  store ptr %25, ptr %18, align 8
  %155 = load ptr, ptr %18, align 8
  store ptr %155, ptr %13, align 8
  %156 = load ptr, ptr %13, align 8
  %157 = getelementptr inbounds nuw %"class.ncnn::Mat", ptr %156, i32 0, i32 1
  %158 = load ptr, ptr %157, align 8
  %159 = icmp ne ptr %158, null
  br i1 %159, label %160, label %187

160:                                              ; preds = %154
  %161 = getelementptr inbounds nuw %"class.ncnn::Mat", ptr %156, i32 0, i32 1
  %162 = load ptr, ptr %161, align 8
  store i32 -1, ptr %14, align 4
  %163 = load i32, ptr %14, align 4
  %164 = atomicrmw add ptr %162, i32 %163 acq_rel, align 4
  store i32 %164, ptr %15, align 4
  %165 = load i32, ptr %15, align 4
  %166 = icmp eq i32 %165, 1
  br i1 %166, label %167, label %187

167:                                              ; preds = %160
  %168 = getelementptr inbounds nuw %"class.ncnn::Mat", ptr %156, i32 0, i32 4
  %169 = load ptr, ptr %168, align 8
  %170 = icmp ne ptr %169, null
  br i1 %170, label %171, label %179

171:                                              ; preds = %167
  %172 = getelementptr inbounds nuw %"class.ncnn::Mat", ptr %156, i32 0, i32 4
  %173 = load ptr, ptr %172, align 8
  %174 = load ptr, ptr %156, align 8
  %175 = load ptr, ptr %173, align 8
  %176 = getelementptr inbounds ptr, ptr %175, i64 3
  %177 = load ptr, ptr %176, align 8
  invoke void %177(ptr noundef nonnull align 8 dereferenceable(8) %173, ptr noundef %174)
          to label %178 unwind label %197

178:                                              ; preds = %171
  br label %186

179:                                              ; preds = %167
  %180 = load ptr, ptr %156, align 8
  store ptr %180, ptr %8, align 8
  %181 = load ptr, ptr %8, align 8
  %182 = icmp ne ptr %181, null
  br i1 %182, label %183, label %185

183:                                              ; preds = %179
  %184 = load ptr, ptr %8, align 8
  call void @free(ptr noundef %184) #15
  br label %185

185:                                              ; preds = %183, %179
  br label %186

186:                                              ; preds = %185, %178
  br label %187

187:                                              ; preds = %186, %160, %154
  store ptr null, ptr %156, align 8
  %188 = getelementptr inbounds nuw %"class.ncnn::Mat", ptr %156, i32 0, i32 2
  store i64 0, ptr %188, align 8
  %189 = getelementptr inbounds nuw %"class.ncnn::Mat", ptr %156, i32 0, i32 3
  store i32 0, ptr %189, align 8
  %190 = getelementptr inbounds nuw %"class.ncnn::Mat", ptr %156, i32 0, i32 5
  store i32 0, ptr %190, align 8
  %191 = getelementptr inbounds nuw %"class.ncnn::Mat", ptr %156, i32 0, i32 6
  store i32 0, ptr %191, align 4
  %192 = getelementptr inbounds nuw %"class.ncnn::Mat", ptr %156, i32 0, i32 7
  store i32 0, ptr %192, align 8
  %193 = getelementptr inbounds nuw %"class.ncnn::Mat", ptr %156, i32 0, i32 8
  store i32 0, ptr %193, align 4
  %194 = getelementptr inbounds nuw %"class.ncnn::Mat", ptr %156, i32 0, i32 9
  store i32 0, ptr %194, align 8
  %195 = getelementptr inbounds nuw %"class.ncnn::Mat", ptr %156, i32 0, i32 10
  store i64 0, ptr %195, align 8
  %196 = getelementptr inbounds nuw %"class.ncnn::Mat", ptr %156, i32 0, i32 1
  store ptr null, ptr %196, align 8
  br label %200

197:                                              ; preds = %171
  %198 = landingpad { ptr, i32 }
          catch ptr null
  %199 = extractvalue { ptr, i32 } %198, 0
  call void @__clang_call_terminate(ptr %199) #16
  unreachable

200:                                              ; preds = %187
  br label %201

201:                                              ; preds = %200
  %202 = load ptr, ptr %26, align 8
  %203 = load i32, ptr %27, align 4
  %204 = insertvalue { ptr, i32 } poison, ptr %202, 0
  %205 = insertvalue { ptr, i32 } %204, i32 %203, 1
  resume { ptr, i32 } %205
}